target datalayout = "e-m:e-p270:32:32-p271:32:32-p272:64:64-i64:64-i128:128-f80:128-n8:16:32:64-S128"
target triple = "x86_64-pc-linux-gnu"

%struct.List = type { i32, i32, i32, ptr, [0 x %union.ListCell] }
%union.ListCell = type { ptr }
%struct.ForEachState = type { ptr, i32 }
%struct.RelOptInfo = type { i32, i32, ptr, double, i8, i8, i8, ptr, ptr, ptr, ptr, ptr, ptr, ptr, ptr, ptr, ptr, i32, i32, i32, i16, i16, ptr, ptr, ptr, ptr, ptr, ptr, ptr, ptr, i32, double, double, ptr, ptr, ptr, i32, i32, i32, i32, i8, ptr, ptr, ptr, ptr, ptr, %struct.QualCost, i32, ptr, i8, i8, ptr, ptr, ptr, ptr, i32, ptr, i8, ptr, ptr, ptr, ptr, ptr, ptr }
%struct.QualCost = type { double, double }
%struct.Path = type { i32, i32, ptr, ptr, ptr, i8, i8, i32, double, i32, double, double, ptr }

; Function Attrs: nounwind uwtable
define dso_local ptr @get_cheapest_fractional_path(ptr noundef %0, double noundef %1) #0 {
  %3 = alloca ptr, align 8
  %4 = alloca ptr, align 8
  %5 = alloca double, align 8
  %6 = alloca ptr, align 8
  %7 = alloca ptr, align 8
  %8 = alloca i32, align 4
  %9 = alloca %struct.ForEachState, align 8
  %10 = alloca ptr, align 8
  store ptr %0, ptr %4, align 8
  store double %1, ptr %5, align 8
  call void @llvm.lifetime.start.p0(i64 8, ptr %6) #8
  %11 = load ptr, ptr %4, align 8
  %12 = getelementptr inbounds nuw %struct.RelOptInfo, ptr %11, i32 0, i32 12
  %13 = load ptr, ptr %12, align 8
  store ptr %13, ptr %6, align 8
  call void @llvm.lifetime.start.p0(i64 8, ptr %7) #8
  %14 = load double, ptr %5, align 8
  %15 = fcmp ole double %14, 0.000000e+00
  br i1 %15, label %16, label %18

16:                                               ; preds = %2
  %17 = load ptr, ptr %6, align 8
  store ptr %17, ptr %3, align 8
  store i32 1, ptr %8, align 4
  br label %91

18:                                               ; preds = %2
  %19 = load double, ptr %5, align 8
  %20 = fcmp oge double %19, 1.000000e+00
  br i1 %20, label %21, label %32

21:                                               ; preds = %18
  %22 = load ptr, ptr %6, align 8
  %23 = getelementptr inbounds nuw %struct.Path, ptr %22, i32 0, i32 8
  %24 = load double, ptr %23, align 8
  %25 = fcmp ogt double %24, 0.000000e+00
  br i1 %25, label %26, label %32

26:                                               ; preds = %21
  %27 = load ptr, ptr %6, align 8
  %28 = getelementptr inbounds nuw %struct.Path, ptr %27, i32 0, i32 8
  %29 = load double, ptr %28, align 8
  %30 = load double, ptr %5, align 8
  %31 = fdiv double %30, %29
  store double %31, ptr %5, align 8
  br label %32

32:                                               ; preds = %26, %21, %18
  call void @llvm.lifetime.start.p0(i64 16, ptr %9) #8
  %33 = getelementptr inbounds nuw %struct.ForEachState, ptr %9, i32 0, i32 0
  %34 = load ptr, ptr %4, align 8
  %35 = getelementptr inbounds nuw %struct.RelOptInfo, ptr %34, i32 0, i32 8
  %36 = load ptr, ptr %35, align 8
  store ptr %36, ptr %33, align 8
  %37 = getelementptr inbounds nuw %struct.ForEachState, ptr %9, i32 0, i32 1
  store i32 0, ptr %37, align 8
  %38 = getelementptr i8, ptr %9, i64 12
  call void @llvm.memset.p0.i64(ptr align 4 %38, i8 0, i64 4, i1 false)
  br label %39

39:                                               ; preds = %85, %32
  %40 = getelementptr inbounds nuw %struct.ForEachState, ptr %9, i32 0, i32 0
  %41 = load ptr, ptr %40, align 8
  %42 = icmp ne ptr %41, null
  br i1 %42, label %43, label %60

43:                                               ; preds = %39
  %44 = getelementptr inbounds nuw %struct.ForEachState, ptr %9, i32 0, i32 1
  %45 = load i32, ptr %44, align 8
  %46 = getelementptr inbounds nuw %struct.ForEachState, ptr %9, i32 0, i32 0
  %47 = load ptr, ptr %46, align 8
  %48 = getelementptr inbounds nuw %struct.List, ptr %47, i32 0, i32 1
  %49 = load i32, ptr %48, align 4
  %50 = icmp slt i32 %45, %49
  br i1 %50, label %51, label %60

51:                                               ; preds = %43
  %52 = getelementptr inbounds nuw %struct.ForEachState, ptr %9, i32 0, i32 0
  %53 = load ptr, ptr %52, align 8
  %54 = getelementptr inbounds nuw %struct.List, ptr %53, i32 0, i32 3
  %55 = load ptr, ptr %54, align 8
  %56 = getelementptr inbounds nuw %struct.ForEachState, ptr %9, i32 0, i32 1
  %57 = load i32, ptr %56, align 8
  %58 = sext i32 %57 to i64
  %59 = getelementptr inbounds %union.ListCell, ptr %55, i64 %58
  store ptr %59, ptr %7, align 8
  br label %61

60:                                               ; preds = %43, %39
  store ptr null, ptr %7, align 8
  br label %61

61:                                               ; preds = %60, %51
  %62 = phi i32 [ 1, %51 ], [ 0, %60 ]
  %63 = icmp ne i32 %62, 0
  br i1 %63, label %65, label %64

64:                                               ; preds = %61
  store i32 2, ptr %8, align 4
  call void @llvm.lifetime.end.p0(i64 16, ptr %9) #8
  br label %89

65:                                               ; preds = %61
  call void @llvm.lifetime.start.p0(i64 8, ptr %10) #8
  %66 = load ptr, ptr %7, align 8
  %67 = load ptr, ptr %66, align 8
  store ptr %67, ptr %10, align 8
  %68 = load ptr, ptr %10, align 8
  %69 = load ptr, ptr %4, align 8
  %70 = getelementptr inbounds nuw %struct.RelOptInfo, ptr %69, i32 0, i32 12
  %71 = load ptr, ptr %70, align 8
  %72 = icmp eq ptr %68, %71
  br i1 %72, label %79, label %73

73:                                               ; preds = %65
  %74 = load ptr, ptr %6, align 8
  %75 = load ptr, ptr %10, align 8
  %76 = load double, ptr %5, align 8
  %77 = call i32 @compare_fractional_path_costs(ptr noundef %74, ptr noundef %75, double noundef %76)
  %78 = icmp sle i32 %77, 0
  br i1 %78, label %79, label %80

79:                                               ; preds = %73, %65
  store i32 4, ptr %8, align 4
  br label %82

80:                                               ; preds = %73
  %81 = load ptr, ptr %10, align 8
  store ptr %81, ptr %6, align 8
  store i32 0, ptr %8, align 4
  br label %82

82:                                               ; preds = %80, %79
  call void @llvm.lifetime.end.p0(i64 8, ptr %10) #8
  %83 = load i32, ptr %8, align 4
  switch i32 %83, label %93 [
    i32 0, label %84
    i32 4, label %85
  ]

84:                                               ; preds = %82
  br label %85

85:                                               ; preds = %84, %82
  %86 = getelementptr inbounds nuw %struct.ForEachState, ptr %9, i32 0, i32 1
  %87 = load i32, ptr %86, align 8
  %88 = add i32 %87, 1
  store i32 %88, ptr %86, align 8
  br label %39, !llvm.loop !17

89:                                               ; preds = %64
  %90 = load ptr, ptr %6, align 8
  store ptr %90, ptr %3, align 8
  store i32 1, ptr %8, align 4
  br label %91

91:                                               ; preds = %89, %16
  call void @llvm.lifetime.end.p0(i64 8, ptr %7) #8
  call void @llvm.lifetime.end.p0(i64 8, ptr %6) #8
  %92 = load ptr, ptr %3, align 8
  ret ptr %92

93:                                               ; preds = %82
  unreachable
}