; Function Attrs: nounwind uwtable
define dso_local ptr @get_cheapest_fractional_path(ptr noundef readonly captures(none) %0, double noundef %1) local_unnamed_addr #0 {
  %3 = getelementptr inbounds nuw i8, ptr %0, i64 72
  %4 = load ptr, ptr %3, align 8
  %5 = fcmp ugt double %1, 0.000000e+00
  br i1 %5, label %6, label %.thread

6:                                                ; preds = %2
  %7 = fcmp ult double %1, 1.000000e+00
  br i1 %7, label %14, label %8

8:                                                ; preds = %6
  %9 = getelementptr inbounds nuw i8, ptr %4, i64 40
  %10 = load double, ptr %9, align 8
  %11 = fcmp ogt double %10, 0.000000e+00
  br i1 %11, label %12, label %14

12:                                               ; preds = %8
  %13 = fdiv double %1, %10
  br label %14

14:                                               ; preds = %12, %8, %6
  %.021 = phi double [ %13, %12 ], [ %1, %8 ], [ %1, %6 ]
  %15 = getelementptr inbounds nuw i8, ptr %0, i64 40
  %16 = load ptr, ptr %15, align 8
  %17 = getelementptr inbounds nuw i8, ptr %16, i64 4
  %.not = icmp eq ptr %16, null
  br i1 %.not, label %.thread, label %.lr.ph

.lr.ph:                                           ; preds = %14
  %18 = getelementptr inbounds nuw i8, ptr %16, i64 16
  %19 = load i32, ptr %17, align 4
  %20 = icmp sgt i32 %19, 0
  br i1 %20, label %.lr.ph38, label %.thread

.lr.ph38:                                         ; preds = %.lr.ph, %30
  %21 = phi i32 [ %31, %30 ], [ %19, %.lr.ph ]
  %indvars.iv = phi i64 [ %indvars.iv.next, %30 ], [ 0, %.lr.ph ]
  %.0223137 = phi ptr [ %.1, %30 ], [ %4, %.lr.ph ]
  %22 = load ptr, ptr %18, align 8
  %23 = getelementptr inbounds nuw %union.ListCell, ptr %22, i64 %indvars.iv
  %24 = load ptr, ptr %23, align 8
  %25 = load ptr, ptr %3, align 8
  %26 = icmp eq ptr %24, %25
  br i1 %26, label %30, label %27

27:                                               ; preds = %.lr.ph38
  %28 = tail call i32 @compare_fractional_path_costs(ptr noundef %.0223137, ptr noundef %24, double noundef %.021) #12
  %29 = icmp slt i32 %28, 1
  %spec.select = select i1 %29, ptr %.0223137, ptr %24
  %.pre = load i32, ptr %17, align 4
  br label %30

30:                                               ; preds = %27, %.lr.ph38
  %31 = phi i32 [ %21, %.lr.ph38 ], [ %.pre, %27 ]
  %.1 = phi ptr [ %.0223137, %.lr.ph38 ], [ %spec.select, %27 ]
  %indvars.iv.next = add nuw nsw i64 %indvars.iv, 1
  %32 = sext i32 %31 to i64
  %33 = icmp slt i64 %indvars.iv.next, %32
  br i1 %33, label %.lr.ph38, label %.thread

.thread:                                          ; preds = %30, %14, %.lr.ph, %2
  %.0 = phi ptr [ %4, %2 ], [ %4, %14 ], [ %4, %.lr.ph ], [ %.1, %30 ]
  ret ptr %.0
}